; Function Attrs: mustprogress nounwind uwtable
define hidden void @_ZN7Threads25possibly_parallel_oops_doEbP10OopClosureP14NMethodClosure(i1 noundef zeroext %0, ptr noundef %1, ptr noundef %2) local_unnamed_addr #0 align 2 {
  %4 = alloca %class.ParallelOopsDoThreadClosure, align 8
  store ptr getelementptr inbounds inrange(-16, 8) (i8, ptr @_ZTV27ParallelOopsDoThreadClosure, i64 16), ptr %4, align 8
  %5 = getelementptr inbounds i8, ptr %4, i64 8
  store ptr %1, ptr %5, align 8
  %6 = getelementptr inbounds i8, ptr %4, i64 16
  store ptr %2, ptr %6, align 8
  call void @_ZN7Threads28possibly_parallel_threads_doEbP13ThreadClosure(i1 noundef zeroext %0, ptr noundef nonnull %4)
  ret void
}